
FanPWMBenchmark.elf:     file format elf32-avr

Sections:
Idx Name          Size      VMA       LMA       File off  Algn
  0 .text         000004ee  00000000  00000000  00000054  2**1
                  CONTENTS, ALLOC, LOAD, READONLY, CODE
  1 .comment      00000011  00000000  00000000  00000542  2**0
                  CONTENTS, READONLY

Disassembly of section .text:

00000000 <__vectors>:
   0:	33 c0       	rjmp	.+102    	; 0x68 <__ctors_end>
   2:	00 00       	nop
   4:	39 c0       	rjmp	.+114    	; 0x78 <__bad_interrupt>
   6:	00 00       	nop
   8:	37 c0       	rjmp	.+110    	; 0x78 <__bad_interrupt>
   a:	00 00       	nop
   c:	35 c0       	rjmp	.+106    	; 0x78 <__bad_interrupt>
   e:	00 00       	nop
  10:	33 c0       	rjmp	.+102    	; 0x78 <__bad_interrupt>
  12:	00 00       	nop
  14:	31 c0       	rjmp	.+98     	; 0x78 <__bad_interrupt>
  16:	00 00       	nop
  18:	2f c0       	rjmp	.+94     	; 0x78 <__bad_interrupt>
  1a:	00 00       	nop
  1c:	2d c0       	rjmp	.+90     	; 0x78 <__bad_interrupt>
  1e:	00 00       	nop
  20:	2b c0       	rjmp	.+86     	; 0x78 <__bad_interrupt>
  22:	00 00       	nop
  24:	29 c0       	rjmp	.+82     	; 0x78 <__bad_interrupt>
  26:	00 00       	nop
  28:	27 c0       	rjmp	.+78     	; 0x78 <__bad_interrupt>
  2a:	00 00       	nop
  2c:	25 c0       	rjmp	.+74     	; 0x78 <__bad_interrupt>
  2e:	00 00       	nop
  30:	23 c0       	rjmp	.+70     	; 0x78 <__bad_interrupt>
  32:	00 00       	nop
  34:	21 c0       	rjmp	.+66     	; 0x78 <__bad_interrupt>
  36:	00 00       	nop
  38:	1f c0       	rjmp	.+62     	; 0x78 <__bad_interrupt>
  3a:	00 00       	nop
  3c:	1d c0       	rjmp	.+58     	; 0x78 <__bad_interrupt>
  3e:	00 00       	nop
  40:	1b c0       	rjmp	.+54     	; 0x78 <__bad_interrupt>
  42:	00 00       	nop
  44:	19 c0       	rjmp	.+50     	; 0x78 <__bad_interrupt>
  46:	00 00       	nop
  48:	17 c0       	rjmp	.+46     	; 0x78 <__bad_interrupt>
  4a:	00 00       	nop
  4c:	15 c0       	rjmp	.+42     	; 0x78 <__bad_interrupt>
  4e:	00 00       	nop
  50:	13 c0       	rjmp	.+38     	; 0x78 <__bad_interrupt>
  52:	00 00       	nop
  54:	11 c0       	rjmp	.+34     	; 0x78 <__bad_interrupt>
  56:	00 00       	nop
  58:	0f c0       	rjmp	.+30     	; 0x78 <__bad_interrupt>
  5a:	00 00       	nop
  5c:	0d c0       	rjmp	.+26     	; 0x78 <__bad_interrupt>
  5e:	00 00       	nop
  60:	0b c0       	rjmp	.+22     	; 0x78 <__bad_interrupt>
  62:	00 00       	nop
  64:	09 c0       	rjmp	.+18     	; 0x78 <__bad_interrupt>
	...

00000068 <__ctors_end>:
  68:	11 24       	eor	r1, r1
  6a:	1f be       	out	0x3f, r1	; 63
  6c:	cf ef       	ldi	r28, 0xFF	; 255
  6e:	d8 e0       	ldi	r29, 0x08	; 8
  70:	de bf       	out	0x3e, r29	; 62
  72:	cd bf       	out	0x3d, r28	; 61
  74:	9c d0       	rcall	.+312    	; 0x1ae <main>
  76:	39 c2       	rjmp	.+1138   	; 0x4ea <_exit>

00000078 <__bad_interrupt>:
  78:	c3 cf       	rjmp	.-122    	; 0x0 <__vectors>

0000007a <_Z13configurePinsv>:
  7a:	25 9a       	sbi	0x04, 5	; 4
  7c:	53 9a       	sbi	0x0a, 3	; 10
  7e:	08 95       	ret

00000080 <_Z13variableDelayj>:
  80:	20 e0       	ldi	r18, 0x00	; 0
  82:	30 e0       	ldi	r19, 0x00	; 0
  84:	28 17       	cp	r18, r24
  86:	39 07       	cpc	r19, r25
  88:	49 f0       	breq	.+18     	; 0x9c <_Z13variableDelayj+0x1c>
  8a:	ef e9       	ldi	r30, 0x9F	; 159
  8c:	ff e0       	ldi	r31, 0x0F	; 15
  8e:	31 97       	sbiw	r30, 0x01	; 1
  90:	f1 f7       	brne	.-4      	; 0x8e <_Z13variableDelayj+0xe>
  92:	00 c0       	rjmp	.+0      	; 0x94 <_Z13variableDelayj+0x14>
  94:	00 00       	nop
  96:	2f 5f       	subi	r18, 0xFF	; 255
  98:	3f 4f       	sbci	r19, 0xFF	; 255
  9a:	f4 cf       	rjmp	.-24     	; 0x84 <_Z13variableDelayj+0x4>
  9c:	08 95       	ret

0000009e <_Z8blinkLedj>:
  9e:	2d 9a       	sbi	0x05, 5	; 5
  a0:	ef df       	rcall	.-34     	; 0x80 <_Z13variableDelayj>
  a2:	2d 98       	cbi	0x05, 5	; 5
  a4:	08 95       	ret

000000a6 <_Z10multiBlinkhjj>:
  a6:	ef 92       	push	r14
  a8:	ff 92       	push	r15
  aa:	0f 93       	push	r16
  ac:	1f 93       	push	r17
  ae:	cf 93       	push	r28
  b0:	df 93       	push	r29
  b2:	e8 2e       	mov	r14, r24
  b4:	8b 01       	movw	r16, r22
  b6:	ea 01       	movw	r28, r20
  b8:	f1 2c       	mov	r15, r1
  ba:	fe 14       	cp	r15, r14
  bc:	41 f0       	breq	.+16     	; 0xce <_Z10multiBlinkhjj+0x28>
  be:	2d 9a       	sbi	0x05, 5	; 5
  c0:	c8 01       	movw	r24, r16
  c2:	de df       	rcall	.-68     	; 0x80 <_Z13variableDelayj>
  c4:	2d 98       	cbi	0x05, 5	; 5
  c6:	ce 01       	movw	r24, r28
  c8:	db df       	rcall	.-74     	; 0x80 <_Z13variableDelayj>
  ca:	f3 94       	inc	r15
  cc:	f6 cf       	rjmp	.-20     	; 0xba <_Z10multiBlinkhjj+0x14>
  ce:	df 91       	pop	r29
  d0:	cf 91       	pop	r28
  d2:	1f 91       	pop	r17
  d4:	0f 91       	pop	r16
  d6:	ff 90       	pop	r15
  d8:	ef 90       	pop	r14
  da:	08 95       	ret

000000dc <_Z8startPWMh>:
  dc:	85 36       	cpi	r24, 0x65	; 101
  de:	f0 f4       	brcc	.+60     	; 0x11c <_Z8startPWMh+0x40>
  e0:	68 2f       	mov	r22, r24
  e2:	70 e0       	ldi	r23, 0x00	; 0
  e4:	80 e0       	ldi	r24, 0x00	; 0
  e6:	90 e0       	ldi	r25, 0x00	; 0
  e8:	0f d1       	rcall	.+542    	; 0x308 <__floatunsisf>
  ea:	20 e0       	ldi	r18, 0x00	; 0
  ec:	30 e0       	ldi	r19, 0x00	; 0
  ee:	48 ec       	ldi	r20, 0xC8	; 200
  f0:	52 e4       	ldi	r21, 0x42	; 66
  f2:	76 d0       	rcall	.+236    	; 0x1e0 <__divsf3>
  f4:	20 e0       	ldi	r18, 0x00	; 0
  f6:	30 e0       	ldi	r19, 0x00	; 0
  f8:	40 ea       	ldi	r20, 0xA0	; 160
  fa:	51 e4       	ldi	r21, 0x41	; 65
  fc:	93 d1       	rcall	.+806    	; 0x424 <__mulsf3>
  fe:	d8 d0       	rcall	.+432    	; 0x2b0 <__fixunssfsi>
 100:	81 e6       	ldi	r24, 0x61	; 97
 102:	80 93 b0 00 	sts	0x00B0, r24
 106:	8a e0       	ldi	r24, 0x0A	; 10
 108:	80 93 b1 00 	sts	0x00B1, r24
 10c:	84 e1       	ldi	r24, 0x14	; 20
 10e:	80 93 b3 00 	sts	0x00B3, r24
 112:	60 93 b4 00 	sts	0x00B4, r22
 116:	86 2f       	mov	r24, r22
 118:	90 e0       	ldi	r25, 0x00	; 0
 11a:	08 95       	ret
 11c:	8f ef       	ldi	r24, 0xFF	; 255
 11e:	9f ef       	ldi	r25, 0xFF	; 255
 120:	08 95       	ret

00000122 <_Z15setPWMDutyCycleh>:
 122:	85 36       	cpi	r24, 0x65	; 101
 124:	a8 f4       	brcc	.+42     	; 0x150 <_Z15setPWMDutyCycleh+0x2e>
 126:	68 2f       	mov	r22, r24
 128:	70 e0       	ldi	r23, 0x00	; 0
 12a:	80 e0       	ldi	r24, 0x00	; 0
 12c:	90 e0       	ldi	r25, 0x00	; 0
 12e:	ec d0       	rcall	.+472    	; 0x308 <__floatunsisf>
 130:	20 e0       	ldi	r18, 0x00	; 0
 132:	30 e0       	ldi	r19, 0x00	; 0
 134:	48 ec       	ldi	r20, 0xC8	; 200
 136:	52 e4       	ldi	r21, 0x42	; 66
 138:	53 d0       	rcall	.+166    	; 0x1e0 <__divsf3>
 13a:	20 e0       	ldi	r18, 0x00	; 0
 13c:	30 e0       	ldi	r19, 0x00	; 0
 13e:	40 ea       	ldi	r20, 0xA0	; 160
 140:	51 e4       	ldi	r21, 0x41	; 65
 142:	70 d1       	rcall	.+736    	; 0x424 <__mulsf3>
 144:	b5 d0       	rcall	.+362    	; 0x2b0 <__fixunssfsi>
 146:	60 93 b4 00 	sts	0x00B4, r22
 14a:	86 2f       	mov	r24, r22
 14c:	90 e0       	ldi	r25, 0x00	; 0
 14e:	08 95       	ret
 150:	8f ef       	ldi	r24, 0xFF	; 255
 152:	9f ef       	ldi	r25, 0xFF	; 255
 154:	08 95       	ret

00000156 <_Z15benchmarkPWMFanhhh>:
 156:	0f 93       	push	r16
 158:	1f 93       	push	r17
 15a:	cf 93       	push	r28
 15c:	df 93       	push	r29
 15e:	08 2f       	mov	r16, r24
 160:	c6 2f       	mov	r28, r22
 162:	14 2f       	mov	r17, r20
 164:	10 92 b4 00 	sts	0x00B4, r1
 168:	8e e8       	ldi	r24, 0x8E	; 142
 16a:	92 e1       	ldi	r25, 0x12	; 18
 16c:	89 df       	rcall	.-238    	; 0x80 <_Z13variableDelayj>
 16e:	d0 2f       	mov	r29, r16
 170:	cd 17       	cp	r28, r29
 172:	50 f0       	brcs	.+20     	; 0x188 <_Z15benchmarkPWMFanhhh+0x32>
 174:	8d 2f       	mov	r24, r29
 176:	d5 df       	rcall	.-86     	; 0x122 <_Z15setPWMDutyCycleh>
 178:	8a ef       	ldi	r24, 0xFA	; 250
 17a:	90 e0       	ldi	r25, 0x00	; 0
 17c:	90 df       	rcall	.-224    	; 0x9e <_Z8blinkLedj>
 17e:	8e e8       	ldi	r24, 0x8E	; 142
 180:	92 e1       	ldi	r25, 0x12	; 18
 182:	7e df       	rcall	.-260    	; 0x80 <_Z13variableDelayj>
 184:	d1 0f       	add	r29, r17
 186:	f4 cf       	rjmp	.-24     	; 0x170 <_Z15benchmarkPWMFanhhh+0x1a>
 188:	c1 1b       	sub	r28, r17
 18a:	c0 17       	cp	r28, r16
 18c:	48 f0       	brcs	.+18     	; 0x1a0 <_Z15benchmarkPWMFanhhh+0x4a>
 18e:	8c 2f       	mov	r24, r28
 190:	c8 df       	rcall	.-112    	; 0x122 <_Z15setPWMDutyCycleh>
 192:	8a ef       	ldi	r24, 0xFA	; 250
 194:	90 e0       	ldi	r25, 0x00	; 0
 196:	83 df       	rcall	.-250    	; 0x9e <_Z8blinkLedj>
 198:	8e e8       	ldi	r24, 0x8E	; 142
 19a:	92 e1       	ldi	r25, 0x12	; 18
 19c:	71 df       	rcall	.-286    	; 0x80 <_Z13variableDelayj>
 19e:	f4 cf       	rjmp	.-24     	; 0x188 <_Z15benchmarkPWMFanhhh+0x32>
 1a0:	10 92 b4 00 	sts	0x00B4, r1
 1a4:	df 91       	pop	r29
 1a6:	cf 91       	pop	r28
 1a8:	1f 91       	pop	r17
 1aa:	0f 91       	pop	r16
 1ac:	08 95       	ret

000001ae <main>:
 1ae:	65 df       	rcall	.-310    	; 0x7a <_Z13configurePinsv>
 1b0:	80 e0       	ldi	r24, 0x00	; 0
 1b2:	94 df       	rcall	.-216    	; 0xdc <_Z8startPWMh>
 1b4:	97 fd       	sbrc	r25, 7
 1b6:	11 c0       	rjmp	.+34     	; 0x1da <main+0x2c>
 1b8:	4a ef       	ldi	r20, 0xFA	; 250
 1ba:	50 e0       	ldi	r21, 0x00	; 0
 1bc:	6a ef       	ldi	r22, 0xFA	; 250
 1be:	70 e0       	ldi	r23, 0x00	; 0
 1c0:	8a e0       	ldi	r24, 0x0A	; 10
 1c2:	71 df       	rcall	.-286    	; 0xa6 <_Z10multiBlinkhjj>
 1c4:	44 e1       	ldi	r20, 0x14	; 20
 1c6:	64 e6       	ldi	r22, 0x64	; 100
 1c8:	84 e1       	ldi	r24, 0x14	; 20
 1ca:	c5 df       	rcall	.-118    	; 0x156 <_Z15benchmarkPWMFanhhh>
 1cc:	49 e1       	ldi	r20, 0x19	; 25
 1ce:	50 e0       	ldi	r21, 0x00	; 0
 1d0:	69 e1       	ldi	r22, 0x19	; 25
 1d2:	70 e0       	ldi	r23, 0x00	; 0
 1d4:	84 e6       	ldi	r24, 0x64	; 100
 1d6:	67 df       	rcall	.-306    	; 0xa6 <_Z10multiBlinkhjj>
 1d8:	ef cf       	rjmp	.-34     	; 0x1b8 <main+0xa>
 1da:	80 e0       	ldi	r24, 0x00	; 0
 1dc:	90 e0       	ldi	r25, 0x00	; 0
 1de:	08 95       	ret

000001e0 <__divsf3>:
 1e0:	0c d0       	rcall	.+24     	; 0x1fa <__divsf3x>
 1e2:	e6 c0       	rjmp	.+460    	; 0x3b0 <__fp_round>
 1e4:	de d0       	rcall	.+444    	; 0x3a2 <__fp_pscB>
 1e6:	40 f0       	brcs	.+16     	; 0x1f8 <__divsf3+0x18>
 1e8:	d5 d0       	rcall	.+426    	; 0x394 <__fp_pscA>
 1ea:	30 f0       	brcs	.+12     	; 0x1f8 <__divsf3+0x18>
 1ec:	21 f4       	brne	.+8      	; 0x1f6 <__divsf3+0x16>
 1ee:	5f 3f       	cpi	r21, 0xFF	; 255
 1f0:	19 f0       	breq	.+6      	; 0x1f8 <__divsf3+0x18>
 1f2:	c7 c0       	rjmp	.+398    	; 0x382 <__fp_inf>
 1f4:	51 11       	cpse	r21, r1
 1f6:	10 c1       	rjmp	.+544    	; 0x418 <__fp_szero>
 1f8:	ca c0       	rjmp	.+404    	; 0x38e <__fp_nan>

000001fa <__divsf3x>:
 1fa:	eb d0       	rcall	.+470    	; 0x3d2 <__fp_split3>
 1fc:	98 f3       	brcs	.-26     	; 0x1e4 <__divsf3+0x4>

000001fe <__divsf3_pse>:
 1fe:	99 23       	and	r25, r25
 200:	c9 f3       	breq	.-14     	; 0x1f4 <__divsf3+0x14>
 202:	55 23       	and	r21, r21
 204:	b1 f3       	breq	.-20     	; 0x1f2 <__divsf3+0x12>
 206:	95 1b       	sub	r25, r21
 208:	55 0b       	sbc	r21, r21
 20a:	bb 27       	eor	r27, r27
 20c:	aa 27       	eor	r26, r26
 20e:	62 17       	cp	r22, r18
 210:	73 07       	cpc	r23, r19
 212:	84 07       	cpc	r24, r20
 214:	38 f0       	brcs	.+14     	; 0x224 <__divsf3_pse+0x26>
 216:	9f 5f       	subi	r25, 0xFF	; 255
 218:	5f 4f       	sbci	r21, 0xFF	; 255
 21a:	22 0f       	add	r18, r18
 21c:	33 1f       	adc	r19, r19
 21e:	44 1f       	adc	r20, r20
 220:	aa 1f       	adc	r26, r26
 222:	a9 f3       	breq	.-22     	; 0x20e <__divsf3_pse+0x10>
 224:	33 d0       	rcall	.+102    	; 0x28c <__divsf3_pse+0x8e>
 226:	0e 2e       	mov	r0, r30
 228:	3a f0       	brmi	.+14     	; 0x238 <__divsf3_pse+0x3a>
 22a:	e0 e8       	ldi	r30, 0x80	; 128
 22c:	30 d0       	rcall	.+96     	; 0x28e <__divsf3_pse+0x90>
 22e:	91 50       	subi	r25, 0x01	; 1
 230:	50 40       	sbci	r21, 0x00	; 0
 232:	e6 95       	lsr	r30
 234:	00 1c       	adc	r0, r0
 236:	ca f7       	brpl	.-14     	; 0x22a <__divsf3_pse+0x2c>
 238:	29 d0       	rcall	.+82     	; 0x28c <__divsf3_pse+0x8e>
 23a:	fe 2f       	mov	r31, r30
 23c:	27 d0       	rcall	.+78     	; 0x28c <__divsf3_pse+0x8e>
 23e:	66 0f       	add	r22, r22
 240:	77 1f       	adc	r23, r23
 242:	88 1f       	adc	r24, r24
 244:	bb 1f       	adc	r27, r27
 246:	26 17       	cp	r18, r22
 248:	37 07       	cpc	r19, r23
 24a:	48 07       	cpc	r20, r24
 24c:	ab 07       	cpc	r26, r27
 24e:	b0 e8       	ldi	r27, 0x80	; 128
 250:	09 f0       	breq	.+2      	; 0x254 <__divsf3_pse+0x56>
 252:	bb 0b       	sbc	r27, r27
 254:	80 2d       	mov	r24, r0
 256:	bf 01       	movw	r22, r30
 258:	ff 27       	eor	r31, r31
 25a:	93 58       	subi	r25, 0x83	; 131
 25c:	5f 4f       	sbci	r21, 0xFF	; 255
 25e:	2a f0       	brmi	.+10     	; 0x26a <__divsf3_pse+0x6c>
 260:	9e 3f       	cpi	r25, 0xFE	; 254
 262:	51 05       	cpc	r21, r1
 264:	68 f0       	brcs	.+26     	; 0x280 <__divsf3_pse+0x82>
 266:	8d c0       	rjmp	.+282    	; 0x382 <__fp_inf>
 268:	d7 c0       	rjmp	.+430    	; 0x418 <__fp_szero>
 26a:	5f 3f       	cpi	r21, 0xFF	; 255
 26c:	ec f3       	brlt	.-6      	; 0x268 <__divsf3_pse+0x6a>
 26e:	98 3e       	cpi	r25, 0xE8	; 232
 270:	dc f3       	brlt	.-10     	; 0x268 <__divsf3_pse+0x6a>
 272:	86 95       	lsr	r24
 274:	77 95       	ror	r23
 276:	67 95       	ror	r22
 278:	b7 95       	ror	r27
 27a:	f7 95       	ror	r31
 27c:	9f 5f       	subi	r25, 0xFF	; 255
 27e:	c9 f7       	brne	.-14     	; 0x272 <__divsf3_pse+0x74>
 280:	88 0f       	add	r24, r24
 282:	91 1d       	adc	r25, r1
 284:	96 95       	lsr	r25
 286:	87 95       	ror	r24
 288:	97 f9       	bld	r25, 7
 28a:	08 95       	ret
 28c:	e1 e0       	ldi	r30, 0x01	; 1
 28e:	66 0f       	add	r22, r22
 290:	77 1f       	adc	r23, r23
 292:	88 1f       	adc	r24, r24
 294:	bb 1f       	adc	r27, r27
 296:	62 17       	cp	r22, r18
 298:	73 07       	cpc	r23, r19
 29a:	84 07       	cpc	r24, r20
 29c:	ba 07       	cpc	r27, r26
 29e:	20 f0       	brcs	.+8      	; 0x2a8 <__divsf3_pse+0xaa>
 2a0:	62 1b       	sub	r22, r18
 2a2:	73 0b       	sbc	r23, r19
 2a4:	84 0b       	sbc	r24, r20
 2a6:	ba 0b       	sbc	r27, r26
 2a8:	ee 1f       	adc	r30, r30
 2aa:	88 f7       	brcc	.-30     	; 0x28e <__divsf3_pse+0x90>
 2ac:	e0 95       	com	r30
 2ae:	08 95       	ret

000002b0 <__fixunssfsi>:
 2b0:	98 d0       	rcall	.+304    	; 0x3e2 <__fp_splitA>
 2b2:	88 f0       	brcs	.+34     	; 0x2d6 <__fixunssfsi+0x26>
 2b4:	9f 57       	subi	r25, 0x7F	; 127
 2b6:	90 f0       	brcs	.+36     	; 0x2dc <__fixunssfsi+0x2c>
 2b8:	b9 2f       	mov	r27, r25
 2ba:	99 27       	eor	r25, r25
 2bc:	b7 51       	subi	r27, 0x17	; 23
 2be:	a0 f0       	brcs	.+40     	; 0x2e8 <__fixunssfsi+0x38>
 2c0:	d1 f0       	breq	.+52     	; 0x2f6 <__fixunssfsi+0x46>
 2c2:	66 0f       	add	r22, r22
 2c4:	77 1f       	adc	r23, r23
 2c6:	88 1f       	adc	r24, r24
 2c8:	99 1f       	adc	r25, r25
 2ca:	1a f0       	brmi	.+6      	; 0x2d2 <__fixunssfsi+0x22>
 2cc:	ba 95       	dec	r27
 2ce:	c9 f7       	brne	.-14     	; 0x2c2 <__fixunssfsi+0x12>
 2d0:	12 c0       	rjmp	.+36     	; 0x2f6 <__fixunssfsi+0x46>
 2d2:	b1 30       	cpi	r27, 0x01	; 1
 2d4:	81 f0       	breq	.+32     	; 0x2f6 <__fixunssfsi+0x46>
 2d6:	9f d0       	rcall	.+318    	; 0x416 <__fp_zero>
 2d8:	b1 e0       	ldi	r27, 0x01	; 1
 2da:	08 95       	ret
 2dc:	9c c0       	rjmp	.+312    	; 0x416 <__fp_zero>
 2de:	67 2f       	mov	r22, r23
 2e0:	78 2f       	mov	r23, r24
 2e2:	88 27       	eor	r24, r24
 2e4:	b8 5f       	subi	r27, 0xF8	; 248
 2e6:	39 f0       	breq	.+14     	; 0x2f6 <__fixunssfsi+0x46>
 2e8:	b9 3f       	cpi	r27, 0xF9	; 249
 2ea:	cc f3       	brlt	.-14     	; 0x2de <__fixunssfsi+0x2e>
 2ec:	86 95       	lsr	r24
 2ee:	77 95       	ror	r23
 2f0:	67 95       	ror	r22
 2f2:	b3 95       	inc	r27
 2f4:	d9 f7       	brne	.-10     	; 0x2ec <__fixunssfsi+0x3c>
 2f6:	3e f4       	brtc	.+14     	; 0x306 <__fixunssfsi+0x56>
 2f8:	90 95       	com	r25
 2fa:	80 95       	com	r24
 2fc:	70 95       	com	r23
 2fe:	61 95       	neg	r22
 300:	7f 4f       	sbci	r23, 0xFF	; 255
 302:	8f 4f       	sbci	r24, 0xFF	; 255
 304:	9f 4f       	sbci	r25, 0xFF	; 255
 306:	08 95       	ret

00000308 <__floatunsisf>:
 308:	e8 94       	clt
 30a:	09 c0       	rjmp	.+18     	; 0x31e <__floatsisf+0x12>

0000030c <__floatsisf>:
 30c:	97 fb       	bst	r25, 7
 30e:	3e f4       	brtc	.+14     	; 0x31e <__floatsisf+0x12>
 310:	90 95       	com	r25
 312:	80 95       	com	r24
 314:	70 95       	com	r23
 316:	61 95       	neg	r22
 318:	7f 4f       	sbci	r23, 0xFF	; 255
 31a:	8f 4f       	sbci	r24, 0xFF	; 255
 31c:	9f 4f       	sbci	r25, 0xFF	; 255
 31e:	99 23       	and	r25, r25
 320:	a9 f0       	breq	.+42     	; 0x34c <__floatsisf+0x40>
 322:	f9 2f       	mov	r31, r25
 324:	96 e9       	ldi	r25, 0x96	; 150
 326:	bb 27       	eor	r27, r27
 328:	93 95       	inc	r25
 32a:	f6 95       	lsr	r31
 32c:	87 95       	ror	r24
 32e:	77 95       	ror	r23
 330:	67 95       	ror	r22
 332:	b7 95       	ror	r27
 334:	f1 11       	cpse	r31, r1
 336:	f8 cf       	rjmp	.-16     	; 0x328 <__floatsisf+0x1c>
 338:	fa f4       	brpl	.+62     	; 0x378 <__floatsisf+0x6c>
 33a:	bb 0f       	add	r27, r27
 33c:	11 f4       	brne	.+4      	; 0x342 <__floatsisf+0x36>
 33e:	60 ff       	sbrs	r22, 0
 340:	1b c0       	rjmp	.+54     	; 0x378 <__floatsisf+0x6c>
 342:	6f 5f       	subi	r22, 0xFF	; 255
 344:	7f 4f       	sbci	r23, 0xFF	; 255
 346:	8f 4f       	sbci	r24, 0xFF	; 255
 348:	9f 4f       	sbci	r25, 0xFF	; 255
 34a:	16 c0       	rjmp	.+44     	; 0x378 <__floatsisf+0x6c>
 34c:	88 23       	and	r24, r24
 34e:	11 f0       	breq	.+4      	; 0x354 <__floatsisf+0x48>
 350:	96 e9       	ldi	r25, 0x96	; 150
 352:	11 c0       	rjmp	.+34     	; 0x376 <__floatsisf+0x6a>
 354:	77 23       	and	r23, r23
 356:	21 f0       	breq	.+8      	; 0x360 <__floatsisf+0x54>
 358:	9e e8       	ldi	r25, 0x8E	; 142
 35a:	87 2f       	mov	r24, r23
 35c:	76 2f       	mov	r23, r22
 35e:	05 c0       	rjmp	.+10     	; 0x36a <__floatsisf+0x5e>
 360:	66 23       	and	r22, r22
 362:	71 f0       	breq	.+28     	; 0x380 <__floatsisf+0x74>
 364:	96 e8       	ldi	r25, 0x86	; 134
 366:	86 2f       	mov	r24, r22
 368:	70 e0       	ldi	r23, 0x00	; 0
 36a:	60 e0       	ldi	r22, 0x00	; 0
 36c:	2a f0       	brmi	.+10     	; 0x378 <__floatsisf+0x6c>
 36e:	9a 95       	dec	r25
 370:	66 0f       	add	r22, r22
 372:	77 1f       	adc	r23, r23
 374:	88 1f       	adc	r24, r24
 376:	da f7       	brpl	.-10     	; 0x36e <__floatsisf+0x62>
 378:	88 0f       	add	r24, r24
 37a:	96 95       	lsr	r25
 37c:	87 95       	ror	r24
 37e:	97 f9       	bld	r25, 7
 380:	08 95       	ret

00000382 <__fp_inf>:
 382:	97 f9       	bld	r25, 7
 384:	9f 67       	ori	r25, 0x7F	; 127
 386:	80 e8       	ldi	r24, 0x80	; 128
 388:	70 e0       	ldi	r23, 0x00	; 0
 38a:	60 e0       	ldi	r22, 0x00	; 0
 38c:	08 95       	ret

0000038e <__fp_nan>:
 38e:	9f ef       	ldi	r25, 0xFF	; 255
 390:	80 ec       	ldi	r24, 0xC0	; 192
 392:	08 95       	ret

00000394 <__fp_pscA>:
 394:	00 24       	eor	r0, r0
 396:	0a 94       	dec	r0
 398:	16 16       	cp	r1, r22
 39a:	17 06       	cpc	r1, r23
 39c:	18 06       	cpc	r1, r24
 39e:	09 06       	cpc	r0, r25
 3a0:	08 95       	ret

000003a2 <__fp_pscB>:
 3a2:	00 24       	eor	r0, r0
 3a4:	0a 94       	dec	r0
 3a6:	12 16       	cp	r1, r18
 3a8:	13 06       	cpc	r1, r19
 3aa:	14 06       	cpc	r1, r20
 3ac:	05 06       	cpc	r0, r21
 3ae:	08 95       	ret

000003b0 <__fp_round>:
 3b0:	09 2e       	mov	r0, r25
 3b2:	03 94       	inc	r0
 3b4:	00 0c       	add	r0, r0
 3b6:	11 f4       	brne	.+4      	; 0x3bc <__fp_round+0xc>
 3b8:	88 23       	and	r24, r24
 3ba:	52 f0       	brmi	.+20     	; 0x3d0 <__fp_round+0x20>
 3bc:	bb 0f       	add	r27, r27
 3be:	40 f4       	brcc	.+16     	; 0x3d0 <__fp_round+0x20>
 3c0:	bf 2b       	or	r27, r31
 3c2:	11 f4       	brne	.+4      	; 0x3c8 <__fp_round+0x18>
 3c4:	60 ff       	sbrs	r22, 0
 3c6:	04 c0       	rjmp	.+8      	; 0x3d0 <__fp_round+0x20>
 3c8:	6f 5f       	subi	r22, 0xFF	; 255
 3ca:	7f 4f       	sbci	r23, 0xFF	; 255
 3cc:	8f 4f       	sbci	r24, 0xFF	; 255
 3ce:	9f 4f       	sbci	r25, 0xFF	; 255
 3d0:	08 95       	ret

000003d2 <__fp_split3>:
 3d2:	57 fd       	sbrc	r21, 7
 3d4:	90 58       	subi	r25, 0x80	; 128
 3d6:	44 0f       	add	r20, r20
 3d8:	55 1f       	adc	r21, r21
 3da:	59 f0       	breq	.+22     	; 0x3f2 <__fp_splitA+0x10>
 3dc:	5f 3f       	cpi	r21, 0xFF	; 255
 3de:	71 f0       	breq	.+28     	; 0x3fc <__fp_splitA+0x1a>
 3e0:	47 95       	ror	r20

000003e2 <__fp_splitA>:
 3e2:	88 0f       	add	r24, r24
 3e4:	97 fb       	bst	r25, 7
 3e6:	99 1f       	adc	r25, r25
 3e8:	61 f0       	breq	.+24     	; 0x402 <__fp_splitA+0x20>
 3ea:	9f 3f       	cpi	r25, 0xFF	; 255
 3ec:	79 f0       	breq	.+30     	; 0x40c <__fp_splitA+0x2a>
 3ee:	87 95       	ror	r24
 3f0:	08 95       	ret
 3f2:	12 16       	cp	r1, r18
 3f4:	13 06       	cpc	r1, r19
 3f6:	14 06       	cpc	r1, r20
 3f8:	55 1f       	adc	r21, r21
 3fa:	f2 cf       	rjmp	.-28     	; 0x3e0 <__fp_split3+0xe>
 3fc:	46 95       	lsr	r20
 3fe:	f1 df       	rcall	.-30     	; 0x3e2 <__fp_splitA>
 400:	08 c0       	rjmp	.+16     	; 0x412 <__fp_splitA+0x30>
 402:	16 16       	cp	r1, r22
 404:	17 06       	cpc	r1, r23
 406:	18 06       	cpc	r1, r24
 408:	99 1f       	adc	r25, r25
 40a:	f1 cf       	rjmp	.-30     	; 0x3ee <__fp_splitA+0xc>
 40c:	86 95       	lsr	r24
 40e:	71 05       	cpc	r23, r1
 410:	61 05       	cpc	r22, r1
 412:	08 94       	sec
 414:	08 95       	ret

00000416 <__fp_zero>:
 416:	e8 94       	clt

00000418 <__fp_szero>:
 418:	bb 27       	eor	r27, r27
 41a:	66 27       	eor	r22, r22
 41c:	77 27       	eor	r23, r23
 41e:	cb 01       	movw	r24, r22
 420:	97 f9       	bld	r25, 7
 422:	08 95       	ret

00000424 <__mulsf3>:
 424:	0b d0       	rcall	.+22     	; 0x43c <__mulsf3x>
 426:	c4 cf       	rjmp	.-120    	; 0x3b0 <__fp_round>
 428:	b5 df       	rcall	.-150    	; 0x394 <__fp_pscA>
 42a:	28 f0       	brcs	.+10     	; 0x436 <__mulsf3+0x12>
 42c:	ba df       	rcall	.-140    	; 0x3a2 <__fp_pscB>
 42e:	18 f0       	brcs	.+6      	; 0x436 <__mulsf3+0x12>
 430:	95 23       	and	r25, r21
 432:	09 f0       	breq	.+2      	; 0x436 <__mulsf3+0x12>
 434:	a6 cf       	rjmp	.-180    	; 0x382 <__fp_inf>
 436:	ab cf       	rjmp	.-170    	; 0x38e <__fp_nan>
 438:	11 24       	eor	r1, r1
 43a:	ee cf       	rjmp	.-36     	; 0x418 <__fp_szero>

0000043c <__mulsf3x>:
 43c:	ca df       	rcall	.-108    	; 0x3d2 <__fp_split3>
 43e:	a0 f3       	brcs	.-24     	; 0x428 <__mulsf3+0x4>

00000440 <__mulsf3_pse>:
 440:	95 9f       	mul	r25, r21
 442:	d1 f3       	breq	.-12     	; 0x438 <__mulsf3+0x14>
 444:	95 0f       	add	r25, r21
 446:	50 e0       	ldi	r21, 0x00	; 0
 448:	55 1f       	adc	r21, r21
 44a:	62 9f       	mul	r22, r18
 44c:	f0 01       	movw	r30, r0
 44e:	72 9f       	mul	r23, r18
 450:	bb 27       	eor	r27, r27
 452:	f0 0d       	add	r31, r0
 454:	b1 1d       	adc	r27, r1
 456:	63 9f       	mul	r22, r19
 458:	aa 27       	eor	r26, r26
 45a:	f0 0d       	add	r31, r0
 45c:	b1 1d       	adc	r27, r1
 45e:	aa 1f       	adc	r26, r26
 460:	64 9f       	mul	r22, r20
 462:	66 27       	eor	r22, r22
 464:	b0 0d       	add	r27, r0
 466:	a1 1d       	adc	r26, r1
 468:	66 1f       	adc	r22, r22
 46a:	82 9f       	mul	r24, r18
 46c:	22 27       	eor	r18, r18
 46e:	b0 0d       	add	r27, r0
 470:	a1 1d       	adc	r26, r1
 472:	62 1f       	adc	r22, r18
 474:	73 9f       	mul	r23, r19
 476:	b0 0d       	add	r27, r0
 478:	a1 1d       	adc	r26, r1
 47a:	62 1f       	adc	r22, r18
 47c:	83 9f       	mul	r24, r19
 47e:	a0 0d       	add	r26, r0
 480:	61 1d       	adc	r22, r1
 482:	22 1f       	adc	r18, r18
 484:	74 9f       	mul	r23, r20
 486:	33 27       	eor	r19, r19
 488:	a0 0d       	add	r26, r0
 48a:	61 1d       	adc	r22, r1
 48c:	23 1f       	adc	r18, r19
 48e:	84 9f       	mul	r24, r20
 490:	60 0d       	add	r22, r0
 492:	21 1d       	adc	r18, r1
 494:	82 2f       	mov	r24, r18
 496:	76 2f       	mov	r23, r22
 498:	6a 2f       	mov	r22, r26
 49a:	11 24       	eor	r1, r1
 49c:	9f 57       	subi	r25, 0x7F	; 127
 49e:	50 40       	sbci	r21, 0x00	; 0
 4a0:	8a f0       	brmi	.+34     	; 0x4c4 <__mulsf3_pse+0x84>
 4a2:	e1 f0       	breq	.+56     	; 0x4dc <__mulsf3_pse+0x9c>
 4a4:	88 23       	and	r24, r24
 4a6:	4a f0       	brmi	.+18     	; 0x4ba <__mulsf3_pse+0x7a>
 4a8:	ee 0f       	add	r30, r30
 4aa:	ff 1f       	adc	r31, r31
 4ac:	bb 1f       	adc	r27, r27
 4ae:	66 1f       	adc	r22, r22
 4b0:	77 1f       	adc	r23, r23
 4b2:	88 1f       	adc	r24, r24
 4b4:	91 50       	subi	r25, 0x01	; 1
 4b6:	50 40       	sbci	r21, 0x00	; 0
 4b8:	a9 f7       	brne	.-22     	; 0x4a4 <__mulsf3_pse+0x64>
 4ba:	9e 3f       	cpi	r25, 0xFE	; 254
 4bc:	51 05       	cpc	r21, r1
 4be:	70 f0       	brcs	.+28     	; 0x4dc <__mulsf3_pse+0x9c>
 4c0:	60 cf       	rjmp	.-320    	; 0x382 <__fp_inf>
 4c2:	aa cf       	rjmp	.-172    	; 0x418 <__fp_szero>
 4c4:	5f 3f       	cpi	r21, 0xFF	; 255
 4c6:	ec f3       	brlt	.-6      	; 0x4c2 <__mulsf3_pse+0x82>
 4c8:	98 3e       	cpi	r25, 0xE8	; 232
 4ca:	dc f3       	brlt	.-10     	; 0x4c2 <__mulsf3_pse+0x82>
 4cc:	86 95       	lsr	r24
 4ce:	77 95       	ror	r23
 4d0:	67 95       	ror	r22
 4d2:	b7 95       	ror	r27
 4d4:	f7 95       	ror	r31
 4d6:	e7 95       	ror	r30
 4d8:	9f 5f       	subi	r25, 0xFF	; 255
 4da:	c1 f7       	brne	.-16     	; 0x4cc <__mulsf3_pse+0x8c>
 4dc:	fe 2b       	or	r31, r30
 4de:	88 0f       	add	r24, r24
 4e0:	91 1d       	adc	r25, r1
 4e2:	96 95       	lsr	r25
 4e4:	87 95       	ror	r24
 4e6:	97 f9       	bld	r25, 7
 4e8:	08 95       	ret

000004ea <_exit>:
 4ea:	f8 94       	cli

000004ec <__stop_program>:
 4ec:	ff cf       	rjmp	.-2      	; 0x4ec <__stop_program>
